target datalayout = "e-m:e-p270:32:32-p271:32:32-p272:64:64-i64:64-i128:128-f80:128-n8:16:32:64-S128"
target triple = "x86_64-pc-linux-gnu"

%struct.AclItem = type { i32, i32, i64 }
%struct.FunctionCallInfoBaseData = type { ptr, ptr, ptr, i32, i8, i16, [0 x %struct.NullableDatum] }
%struct.NullableDatum = type { i64, i8 }
%struct.FormData_pg_authid = type { i32, %struct.nameData, i8, i8, i8, i8, i8, i8, i8, i32 }
%struct.nameData = type { [64 x i8] }
%struct.HeapTupleData = type { i32, %struct.ItemPointerData, i32, ptr }
%struct.ItemPointerData = type { %struct.BlockIdData, i16 }
%struct.BlockIdData = type { i16, i16 }
%struct.HeapTupleHeaderData = type { %union.anon, %struct.ItemPointerData, i16, i16, i8, [0 x i8] }
%union.anon = type { %struct.HeapTupleFields }
%struct.HeapTupleFields = type { i32, i32, %union.anon.1 }
%union.anon.1 = type { i32 }

@.str.2 = private unnamed_addr constant [3 x i8] c"%u\00", align 1
@.str.3 = private unnamed_addr constant [16 x i8] c"arwdDxtXUCTcsAm\00", align 1

; Function Attrs: inlinehint nounwind uwtable
define internal i64 @PointerGetDatum(ptr noundef %0) #5 {
  %2 = alloca ptr, align 8
  store ptr %0, ptr %2, align 8
  %3 = load ptr, ptr %2, align 8
  %4 = ptrtoint ptr %3 to i64
  ret i64 %4
}

; Function Attrs: inlinehint nounwind uwtable
define internal i64 @CStringGetDatum(ptr noundef %0) #5 {
  %2 = alloca ptr, align 8
  store ptr %0, ptr %2, align 8
  %3 = load ptr, ptr %2, align 8
  %4 = call i64 @PointerGetDatum(ptr noundef %3)
  ret i64 %4
}

; Function Attrs: nounwind uwtable
define internal void @putid(ptr noundef %0, ptr noundef %1) #0 {
  %3 = alloca ptr, align 8
  %4 = alloca ptr, align 8
  %5 = alloca ptr, align 8
  %6 = alloca i8, align 1
  store ptr %0, ptr %3, align 8
  store ptr %1, ptr %4, align 8
  call void @llvm.lifetime.start.p0(i64 8, ptr %5) #9
  call void @llvm.lifetime.start.p0(i64 1, ptr %6) #9
  store i8 1, ptr %6, align 1
  %7 = load ptr, ptr %4, align 8
  store ptr %7, ptr %5, align 8
  br label %8

8:                                                ; preds = %31, %2
  %9 = load ptr, ptr %5, align 8
  %10 = load i8, ptr %9, align 1
  %11 = icmp ne i8 %10, 0
  br i1 %11, label %12, label %34

12:                                               ; preds = %8
  %13 = call ptr @__ctype_b_loc() #12
  %14 = load ptr, ptr %13, align 8
  %15 = load ptr, ptr %5, align 8
  %16 = load i8, ptr %15, align 1
  %17 = zext i8 %16 to i32
  %18 = sext i32 %17 to i64
  %19 = getelementptr inbounds i16, ptr %14, i64 %18
  %20 = load i16, ptr %19, align 2
  %21 = zext i16 %20 to i32
  %22 = and i32 %21, 8
  %23 = icmp ne i32 %22, 0
  br i1 %23, label %30, label %24

24:                                               ; preds = %12
  %25 = load ptr, ptr %5, align 8
  %26 = load i8, ptr %25, align 1
  %27 = sext i8 %26 to i32
  %28 = icmp ne i32 %27, 95
  br i1 %28, label %29, label %30

29:                                               ; preds = %24
  store i8 0, ptr %6, align 1
  br label %34

30:                                               ; preds = %24, %12
  br label %31

31:                                               ; preds = %30
  %32 = load ptr, ptr %5, align 8
  %33 = getelementptr inbounds nuw i8, ptr %32, i32 1
  store ptr %33, ptr %5, align 8
  br label %8, !llvm.loop !11

34:                                               ; preds = %29, %8
  %35 = load i8, ptr %6, align 1, !range !12, !noundef !13
  %36 = trunc i8 %35 to i1
  br i1 %36, label %40, label %37

37:                                               ; preds = %34
  %38 = load ptr, ptr %3, align 8
  %39 = getelementptr inbounds nuw i8, ptr %38, i32 1
  store ptr %39, ptr %3, align 8
  store i8 34, ptr %38, align 1
  br label %40

40:                                               ; preds = %37, %34
  %41 = load ptr, ptr %4, align 8
  store ptr %41, ptr %5, align 8
  br label %42

42:                                               ; preds = %59, %40
  %43 = load ptr, ptr %5, align 8
  %44 = load i8, ptr %43, align 1
  %45 = icmp ne i8 %44, 0
  br i1 %45, label %46, label %62

46:                                               ; preds = %42
  %47 = load ptr, ptr %5, align 8
  %48 = load i8, ptr %47, align 1
  %49 = sext i8 %48 to i32
  %50 = icmp eq i32 %49, 34
  br i1 %50, label %51, label %54

51:                                               ; preds = %46
  %52 = load ptr, ptr %3, align 8
  %53 = getelementptr inbounds nuw i8, ptr %52, i32 1
  store ptr %53, ptr %3, align 8
  store i8 34, ptr %52, align 1
  br label %54

54:                                               ; preds = %51, %46
  %55 = load ptr, ptr %5, align 8
  %56 = load i8, ptr %55, align 1
  %57 = load ptr, ptr %3, align 8
  %58 = getelementptr inbounds nuw i8, ptr %57, i32 1
  store ptr %58, ptr %3, align 8
  store i8 %56, ptr %57, align 1
  br label %59

59:                                               ; preds = %54
  %60 = load ptr, ptr %5, align 8
  %61 = getelementptr inbounds nuw i8, ptr %60, i32 1
  store ptr %61, ptr %5, align 8
  br label %42, !llvm.loop !14

62:                                               ; preds = %42
  %63 = load i8, ptr %6, align 1, !range !12, !noundef !13
  %64 = trunc i8 %63 to i1
  br i1 %64, label %68, label %65

65:                                               ; preds = %62
  %66 = load ptr, ptr %3, align 8
  %67 = getelementptr inbounds nuw i8, ptr %66, i32 1
  store ptr %67, ptr %3, align 8
  store i8 34, ptr %66, align 1
  br label %68

68:                                               ; preds = %65, %62
  %69 = load ptr, ptr %3, align 8
  store i8 0, ptr %69, align 1
  call void @llvm.lifetime.end.p0(i64 1, ptr %6) #9
  call void @llvm.lifetime.end.p0(i64 8, ptr %5) #9
  ret void
}

; Function Attrs: inlinehint nounwind uwtable
define internal ptr @GETSTRUCT(ptr noundef %0) #5 {
  %2 = alloca ptr, align 8
  store ptr %0, ptr %2, align 8
  %3 = load ptr, ptr %2, align 8
  %4 = getelementptr inbounds nuw %struct.HeapTupleData, ptr %3, i32 0, i32 3
  %5 = load ptr, ptr %4, align 8
  %6 = load ptr, ptr %2, align 8
  %7 = getelementptr inbounds nuw %struct.HeapTupleData, ptr %6, i32 0, i32 3
  %8 = load ptr, ptr %7, align 8
  %9 = getelementptr inbounds nuw %struct.HeapTupleHeaderData, ptr %8, i32 0, i32 4
  %10 = load i8, ptr %9, align 2
  %11 = zext i8 %10 to i32
  %12 = sext i32 %11 to i64
  %13 = getelementptr inbounds i8, ptr %5, i64 %12
  ret ptr %13
}

; Function Attrs: inlinehint nounwind uwtable
define internal i64 @ObjectIdGetDatum(i32 noundef %0) #5 {
  %2 = alloca i32, align 4
  store i32 %0, ptr %2, align 4
  %3 = load i32, ptr %2, align 4
  %4 = zext i32 %3 to i64
  ret i64 %4
}

; Function Attrs: inlinehint nounwind uwtable
define internal ptr @DatumGetPointer(i64 noundef %0) #5 {
  %2 = alloca i64, align 8
  store i64 %0, ptr %2, align 8
  %3 = load i64, ptr %2, align 8
  %4 = inttoptr i64 %3 to ptr
  ret ptr %4
}

; Function Attrs: nounwind uwtable
define dso_local i64 @aclitemout(ptr noundef %0) #0 {
  %2 = alloca ptr, align 8
  %3 = alloca ptr, align 8
  %4 = alloca ptr, align 8
  %5 = alloca ptr, align 8
  %6 = alloca ptr, align 8
  %7 = alloca i32, align 4
  store ptr %0, ptr %2, align 8
  call void @llvm.lifetime.start.p0(i64 8, ptr %3) #9
  %8 = load ptr, ptr %2, align 8
  %9 = getelementptr inbounds nuw %struct.FunctionCallInfoBaseData, ptr %8, i32 0, i32 6
  %10 = getelementptr inbounds [0 x %struct.NullableDatum], ptr %9, i64 0, i64 0
  %11 = getelementptr inbounds nuw %struct.NullableDatum, ptr %10, i32 0, i32 0
  %12 = load i64, ptr %11, align 8
  %13 = call ptr @DatumGetPointer(i64 noundef %12)
  store ptr %13, ptr %3, align 8
  call void @llvm.lifetime.start.p0(i64 8, ptr %4) #9
  call void @llvm.lifetime.start.p0(i64 8, ptr %5) #9
  call void @llvm.lifetime.start.p0(i64 8, ptr %6) #9
  call void @llvm.lifetime.start.p0(i64 4, ptr %7) #9
  %14 = call ptr @palloc(i64 noundef 293)
  store ptr %14, ptr %5, align 8
  %15 = load ptr, ptr %5, align 8
  store ptr %15, ptr %4, align 8
  %16 = load ptr, ptr %4, align 8
  store i8 0, ptr %16, align 1
  %17 = load ptr, ptr %3, align 8
  %18 = getelementptr inbounds nuw %struct.AclItem, ptr %17, i32 0, i32 0
  %19 = load i32, ptr %18, align 8
  %20 = icmp ne i32 %19, 0
  br i1 %20, label %21, label %44

21:                                               ; preds = %1
  %22 = load ptr, ptr %3, align 8
  %23 = getelementptr inbounds nuw %struct.AclItem, ptr %22, i32 0, i32 0
  %24 = load i32, ptr %23, align 8
  %25 = call i64 @ObjectIdGetDatum(i32 noundef %24)
  %26 = call ptr @SearchSysCache1(i32 noundef 11, i64 noundef %25)
  store ptr %26, ptr %6, align 8
  %27 = load ptr, ptr %6, align 8
  %28 = icmp ne ptr %27, null
  br i1 %28, label %29, label %37

29:                                               ; preds = %21
  %30 = load ptr, ptr %4, align 8
  %31 = load ptr, ptr %6, align 8
  %32 = call ptr @GETSTRUCT(ptr noundef %31)
  %33 = getelementptr inbounds nuw %struct.FormData_pg_authid, ptr %32, i32 0, i32 1
  %34 = getelementptr inbounds nuw %struct.nameData, ptr %33, i32 0, i32 0
  %35 = getelementptr inbounds [64 x i8], ptr %34, i64 0, i64 0
  call void @putid(ptr noundef %30, ptr noundef %35)
  %36 = load ptr, ptr %6, align 8
  call void @ReleaseSysCache(ptr noundef %36)
  br label %43

37:                                               ; preds = %21
  %38 = load ptr, ptr %4, align 8
  %39 = load ptr, ptr %3, align 8
  %40 = getelementptr inbounds nuw %struct.AclItem, ptr %39, i32 0, i32 0
  %41 = load i32, ptr %40, align 8
  %42 = call i32 (ptr, ptr, ...) @pg_sprintf(ptr noundef %38, ptr noundef @.str.2, i32 noundef %41)
  br label %43

43:                                               ; preds = %37, %29
  br label %44

44:                                               ; preds = %43, %1
  br label %45

45:                                               ; preds = %49, %44
  %46 = load ptr, ptr %4, align 8
  %47 = load i8, ptr %46, align 1
  %48 = icmp ne i8 %47, 0
  br i1 %48, label %49, label %52

49:                                               ; preds = %45
  %50 = load ptr, ptr %4, align 8
  %51 = getelementptr inbounds nuw i8, ptr %50, i32 1
  store ptr %51, ptr %4, align 8
  br label %45, !llvm.loop !9

52:                                               ; preds = %45
  %53 = load ptr, ptr %4, align 8
  %54 = getelementptr inbounds nuw i8, ptr %53, i32 1
  store ptr %54, ptr %4, align 8
  store i8 61, ptr %53, align 1
  store i32 0, ptr %7, align 4
  br label %55

55:                                               ; preds = %90, %52
  %56 = load i32, ptr %7, align 4
  %57 = icmp ult i32 %56, 15
  br i1 %57, label %58, label %93

58:                                               ; preds = %55
  %59 = load ptr, ptr %3, align 8
  %60 = getelementptr inbounds nuw %struct.AclItem, ptr %59, i32 0, i32 2
  %61 = load i64, ptr %60, align 8
  %62 = and i64 %61, 4294967295
  %63 = load i32, ptr %7, align 4
  %64 = zext i32 %63 to i64
  %65 = shl i64 1, %64
  %66 = and i64 %62, %65
  %67 = icmp ne i64 %66, 0
  br i1 %67, label %68, label %75

68:                                               ; preds = %58
  %69 = load i32, ptr %7, align 4
  %70 = zext i32 %69 to i64
  %71 = getelementptr inbounds nuw [16 x i8], ptr @.str.3, i64 0, i64 %70
  %72 = load i8, ptr %71, align 1
  %73 = load ptr, ptr %4, align 8
  %74 = getelementptr inbounds nuw i8, ptr %73, i32 1
  store ptr %74, ptr %4, align 8
  store i8 %72, ptr %73, align 1
  br label %75

75:                                               ; preds = %68, %58
  %76 = load ptr, ptr %3, align 8
  %77 = getelementptr inbounds nuw %struct.AclItem, ptr %76, i32 0, i32 2
  %78 = load i64, ptr %77, align 8
  %79 = lshr i64 %78, 32
  %80 = and i64 %79, 4294967295
  %81 = load i32, ptr %7, align 4
  %82 = zext i32 %81 to i64
  %83 = shl i64 1, %82
  %84 = and i64 %80, %83
  %85 = icmp ne i64 %84, 0
  br i1 %85, label %86, label %89

86:                                               ; preds = %75
  %87 = load ptr, ptr %4, align 8
  %88 = getelementptr inbounds nuw i8, ptr %87, i32 1
  store ptr %88, ptr %4, align 8
  store i8 42, ptr %87, align 1
  br label %89

89:                                               ; preds = %86, %75
  br label %90

90:                                               ; preds = %89
  %91 = load i32, ptr %7, align 4
  %92 = add i32 %91, 1
  store i32 %92, ptr %7, align 4
  br label %55, !llvm.loop !10

93:                                               ; preds = %55
  %94 = load ptr, ptr %4, align 8
  %95 = getelementptr inbounds nuw i8, ptr %94, i32 1
  store ptr %95, ptr %4, align 8
  store i8 47, ptr %94, align 1
  %96 = load ptr, ptr %4, align 8
  store i8 0, ptr %96, align 1
  %97 = load ptr, ptr %3, align 8
  %98 = getelementptr inbounds nuw %struct.AclItem, ptr %97, i32 0, i32 1
  %99 = load i32, ptr %98, align 4
  %100 = call i64 @ObjectIdGetDatum(i32 noundef %99)
  %101 = call ptr @SearchSysCache1(i32 noundef 11, i64 noundef %100)
  store ptr %101, ptr %6, align 8
  %102 = load ptr, ptr %6, align 8
  %103 = icmp ne ptr %102, null
  br i1 %103, label %104, label %112

104:                                              ; preds = %93
  %105 = load ptr, ptr %4, align 8
  %106 = load ptr, ptr %6, align 8
  %107 = call ptr @GETSTRUCT(ptr noundef %106)
  %108 = getelementptr inbounds nuw %struct.FormData_pg_authid, ptr %107, i32 0, i32 1
  %109 = getelementptr inbounds nuw %struct.nameData, ptr %108, i32 0, i32 0
  %110 = getelementptr inbounds [64 x i8], ptr %109, i64 0, i64 0
  call void @putid(ptr noundef %105, ptr noundef %110)
  %111 = load ptr, ptr %6, align 8
  call void @ReleaseSysCache(ptr noundef %111)
  br label %118

112:                                              ; preds = %93
  %113 = load ptr, ptr %4, align 8
  %114 = load ptr, ptr %3, align 8
  %115 = getelementptr inbounds nuw %struct.AclItem, ptr %114, i32 0, i32 1
  %116 = load i32, ptr %115, align 4
  %117 = call i32 (ptr, ptr, ...) @pg_sprintf(ptr noundef %113, ptr noundef @.str.2, i32 noundef %116)
  br label %118

118:                                              ; preds = %112, %104
  %119 = load ptr, ptr %5, align 8
  %120 = call i64 @CStringGetDatum(ptr noundef %119)
  call void @llvm.lifetime.end.p0(i64 4, ptr %7) #9
  call void @llvm.lifetime.end.p0(i64 8, ptr %6) #9
  call void @llvm.lifetime.end.p0(i64 8, ptr %5) #9
  call void @llvm.lifetime.end.p0(i64 8, ptr %4) #9
  call void @llvm.lifetime.end.p0(i64 8, ptr %3) #9
  ret i64 %120
}