; Function Attrs: nounwind uwtable
define dso_local noundef i64 @aclitemout(ptr noundef readonly captures(none) %0) local_unnamed_addr #0 {
  %2 = getelementptr inbounds nuw i8, ptr %0, i64 32
  %3 = load i64, ptr %2, align 8
  %4 = inttoptr i64 %3 to ptr
  %5 = tail call ptr @palloc(i64 noundef 293) #14
  store i8 0, ptr %5, align 1
  %6 = load i32, ptr %4, align 8
  %.not = icmp eq i32 %6, 0
  br i1 %.not, label %.preheader, label %7

7:                                                ; preds = %1
  %8 = zext i32 %6 to i64
  %9 = tail call ptr @SearchSysCache1(i32 noundef 11, i64 noundef %8) #14
  %.not36 = icmp eq ptr %9, null
  br i1 %.not36, label %42, label %10

10:                                               ; preds = %7
  %11 = getelementptr i8, ptr %9, i64 16
  %.val = load ptr, ptr %11, align 8
  %12 = getelementptr inbounds nuw i8, ptr %.val, i64 22
  %13 = load i8, ptr %12, align 2
  %14 = zext i8 %13 to i64
  %15 = getelementptr inbounds nuw i8, ptr %.val, i64 %14
  %16 = getelementptr inbounds nuw i8, ptr %15, i64 4
  %17 = load i8, ptr %16, align 1
  %.not26.i = icmp eq i8 %17, 0
  br i1 %.not26.i, label %.critedge.i, label %.lr.ph.i

.lr.ph.i:                                         ; preds = %10
  %18 = tail call ptr @__ctype_b_loc() #16
  %19 = load ptr, ptr %18, align 8
  br label %23

20:                                               ; preds = %23
  %21 = getelementptr inbounds nuw i8, ptr %.01627.i, i64 1
  %22 = load i8, ptr %21, align 1
  %.not.i = icmp eq i8 %22, 0
  br i1 %.not.i, label %.critedge.i, label %23, !llvm.loop !11

23:                                               ; preds = %20, %.lr.ph.i
  %24 = phi i8 [ %17, %.lr.ph.i ], [ %22, %20 ]
  %.01627.i = phi ptr [ %16, %.lr.ph.i ], [ %21, %20 ]
  %25 = zext i8 %24 to i64
  %26 = getelementptr inbounds nuw i16, ptr %19, i64 %25
  %27 = load i16, ptr %26, align 2
  %28 = and i16 %27, 8
  %.not21.i = icmp ne i16 %28, 0
  %.not22.i = icmp eq i8 %24, 95
  %or.cond.i = or i1 %.not22.i, %.not21.i
  br i1 %or.cond.i, label %20, label %29

29:                                               ; preds = %23
  %30 = getelementptr inbounds nuw i8, ptr %5, i64 1
  store i8 34, ptr %5, align 1
  br label %.critedge.i

.critedge.i:                                      ; preds = %20, %29, %10
  %.not25.i = phi i1 [ false, %29 ], [ true, %10 ], [ true, %20 ]
  %.017.i = phi ptr [ %30, %29 ], [ %5, %10 ], [ %5, %20 ]
  br label %31

31:                                               ; preds = %35, %.critedge.i
  %.118.i = phi ptr [ %.017.i, %.critedge.i ], [ %37, %35 ]
  %.1.i = phi ptr [ %16, %.critedge.i ], [ %38, %35 ]
  %32 = load i8, ptr %.1.i, align 1
  switch i8 %32, label %35 [
    i8 0, label %39
    i8 34, label %33
  ]

33:                                               ; preds = %31
  %34 = getelementptr inbounds nuw i8, ptr %.118.i, i64 1
  store i8 34, ptr %.118.i, align 1
  %.pre.i = load i8, ptr %.1.i, align 1
  br label %35

35:                                               ; preds = %33, %31
  %36 = phi i8 [ %.pre.i, %33 ], [ %32, %31 ]
  %.2.i = phi ptr [ %34, %33 ], [ %.118.i, %31 ]
  %37 = getelementptr inbounds nuw i8, ptr %.2.i, i64 1
  store i8 %36, ptr %.2.i, align 1
  %38 = getelementptr inbounds nuw i8, ptr %.1.i, i64 1
  br label %31, !llvm.loop !12

39:                                               ; preds = %31
  br i1 %.not25.i, label %putid.exit, label %40

40:                                               ; preds = %39
  %41 = getelementptr inbounds nuw i8, ptr %.118.i, i64 1
  store i8 34, ptr %.118.i, align 1
  br label %putid.exit

putid.exit:                                       ; preds = %39, %40
  %.3.i = phi ptr [ %.118.i, %39 ], [ %41, %40 ]
  store i8 0, ptr %.3.i, align 1
  tail call void @ReleaseSysCache(ptr noundef nonnull %9) #14
  br label %.preheader

42:                                               ; preds = %7
  %43 = load i32, ptr %4, align 8
  %44 = tail call i32 (ptr, ptr, ...) @pg_sprintf(ptr noundef nonnull %5, ptr noundef nonnull @.str.2, i32 noundef %43) #14
  br label %.preheader

.preheader:                                       ; preds = %putid.exit, %42, %1
  br label %45

45:                                               ; preds = %.preheader, %45
  %.032 = phi ptr [ %47, %45 ], [ %5, %.preheader ]
  %46 = load i8, ptr %.032, align 1
  %.not37 = icmp eq i8 %46, 0
  %47 = getelementptr inbounds nuw i8, ptr %.032, i64 1
  br i1 %.not37, label %48, label %45, !llvm.loop !13

48:                                               ; preds = %45
  store i8 61, ptr %.032, align 1
  %49 = getelementptr inbounds nuw i8, ptr %4, i64 8
  br label %50

50:                                               ; preds = %48, %64
  %indvars.iv = phi i64 [ 0, %48 ], [ %indvars.iv.next, %64 ]
  %.158 = phi ptr [ %47, %48 ], [ %.3, %64 ]
  %51 = load i64, ptr %49, align 8
  %52 = shl nuw nsw i64 1, %indvars.iv
  %53 = and i64 %51, %52
  %.not39 = icmp eq i64 %53, 0
  br i1 %.not39, label %58, label %54

54:                                               ; preds = %50
  %55 = getelementptr inbounds nuw [16 x i8], ptr @.str.3, i64 0, i64 %indvars.iv
  %56 = load i8, ptr %55, align 1
  %57 = getelementptr inbounds nuw i8, ptr %.158, i64 1
  store i8 %56, ptr %.158, align 1
  %.pre = load i64, ptr %49, align 8
  br label %58

58:                                               ; preds = %54, %50
  %59 = phi i64 [ %.pre, %54 ], [ %51, %50 ]
  %.2 = phi ptr [ %57, %54 ], [ %.158, %50 ]
  %60 = lshr i64 %59, 32
  %61 = and i64 %60, %52
  %.not40 = icmp eq i64 %61, 0
  br i1 %.not40, label %64, label %62

62:                                               ; preds = %58
  %63 = getelementptr inbounds nuw i8, ptr %.2, i64 1
  store i8 42, ptr %.2, align 1
  br label %64

64:                                               ; preds = %58, %62
  %.3 = phi ptr [ %63, %62 ], [ %.2, %58 ]
  %indvars.iv.next = add nuw nsw i64 %indvars.iv, 1
  %exitcond.not = icmp eq i64 %indvars.iv.next, 15
  br i1 %exitcond.not, label %65, label %50, !llvm.loop !14

65:                                               ; preds = %64
  %66 = getelementptr inbounds nuw i8, ptr %.3, i64 1
  store i8 47, ptr %.3, align 1
  store i8 0, ptr %66, align 1
  %67 = getelementptr inbounds nuw i8, ptr %4, i64 4
  %68 = load i32, ptr %67, align 4
  %69 = zext i32 %68 to i64
  %70 = tail call ptr @SearchSysCache1(i32 noundef 11, i64 noundef %69) #14
  %.not38 = icmp eq ptr %70, null
  br i1 %.not38, label %103, label %71

71:                                               ; preds = %65
  %72 = getelementptr i8, ptr %70, i64 16
  %.val41 = load ptr, ptr %72, align 8
  %73 = getelementptr inbounds nuw i8, ptr %.val41, i64 22
  %74 = load i8, ptr %73, align 2
  %75 = zext i8 %74 to i64
  %76 = getelementptr inbounds nuw i8, ptr %.val41, i64 %75
  %77 = getelementptr inbounds nuw i8, ptr %76, i64 4
  %78 = load i8, ptr %77, align 1
  %.not26.i42 = icmp eq i8 %78, 0
  br i1 %.not26.i42, label %.critedge.i48, label %.lr.ph.i43

.lr.ph.i43:                                       ; preds = %71
  %79 = tail call ptr @__ctype_b_loc() #16
  %80 = load ptr, ptr %79, align 8
  br label %84

81:                                               ; preds = %84
  %82 = getelementptr inbounds nuw i8, ptr %.01627.i44, i64 1
  %83 = load i8, ptr %82, align 1
  %.not.i56 = icmp eq i8 %83, 0
  br i1 %.not.i56, label %.critedge.i48, label %84, !llvm.loop !11

84:                                               ; preds = %81, %.lr.ph.i43
  %85 = phi i8 [ %78, %.lr.ph.i43 ], [ %83, %81 ]
  %.01627.i44 = phi ptr [ %77, %.lr.ph.i43 ], [ %82, %81 ]
  %86 = zext i8 %85 to i64
  %87 = getelementptr inbounds nuw i16, ptr %80, i64 %86
  %88 = load i16, ptr %87, align 2
  %89 = and i16 %88, 8
  %.not21.i45 = icmp ne i16 %89, 0
  %.not22.i46 = icmp eq i8 %85, 95
  %or.cond.i47 = or i1 %.not22.i46, %.not21.i45
  br i1 %or.cond.i47, label %81, label %90

90:                                               ; preds = %84
  %91 = getelementptr inbounds nuw i8, ptr %.3, i64 2
  store i8 34, ptr %66, align 1
  br label %.critedge.i48

.critedge.i48:                                    ; preds = %81, %90, %71
  %.not25.i49 = phi i1 [ false, %90 ], [ true, %71 ], [ true, %81 ]
  %.017.i50 = phi ptr [ %91, %90 ], [ %66, %71 ], [ %66, %81 ]
  br label %92

92:                                               ; preds = %96, %.critedge.i48
  %.118.i51 = phi ptr [ %.017.i50, %.critedge.i48 ], [ %98, %96 ]
  %.1.i52 = phi ptr [ %77, %.critedge.i48 ], [ %99, %96 ]
  %93 = load i8, ptr %.1.i52, align 1
  switch i8 %93, label %96 [
    i8 0, label %100
    i8 34, label %94
  ]

94:                                               ; preds = %92
  %95 = getelementptr inbounds nuw i8, ptr %.118.i51, i64 1
  store i8 34, ptr %.118.i51, align 1
  %.pre.i53 = load i8, ptr %.1.i52, align 1
  br label %96

96:                                               ; preds = %94, %92
  %97 = phi i8 [ %.pre.i53, %94 ], [ %93, %92 ]
  %.2.i54 = phi ptr [ %95, %94 ], [ %.118.i51, %92 ]
  %98 = getelementptr inbounds nuw i8, ptr %.2.i54, i64 1
  store i8 %97, ptr %.2.i54, align 1
  %99 = getelementptr inbounds nuw i8, ptr %.1.i52, i64 1
  br label %92, !llvm.loop !12

100:                                              ; preds = %92
  br i1 %.not25.i49, label %putid.exit57, label %101

101:                                              ; preds = %100
  %102 = getelementptr inbounds nuw i8, ptr %.118.i51, i64 1
  store i8 34, ptr %.118.i51, align 1
  br label %putid.exit57

putid.exit57:                                     ; preds = %100, %101
  %.3.i55 = phi ptr [ %.118.i51, %100 ], [ %102, %101 ]
  store i8 0, ptr %.3.i55, align 1
  tail call void @ReleaseSysCache(ptr noundef nonnull %70) #14
  br label %106

103:                                              ; preds = %65
  %104 = load i32, ptr %67, align 4
  %105 = tail call i32 (ptr, ptr, ...) @pg_sprintf(ptr noundef nonnull %66, ptr noundef nonnull @.str.2, i32 noundef %104) #14
  br label %106

106:                                              ; preds = %103, %putid.exit57
  %107 = ptrtoint ptr %5 to i64
  ret i64 %107
}